; Function Attrs: mustprogress uwtable
define noundef zeroext i1 @_ZN8facebook5velox6memory15MallocAllocator30allocateContiguousWithoutRetryEmPNS1_10AllocationERNS1_20ContiguousAllocationESt8functionIFvlbEEm(ptr noundef nonnull align 8 dereferenceable(1016) %this, i64 noundef %numPages, ptr noundef %collateral, ptr noundef nonnull align 8 dereferenceable(32) %allocation, ptr noundef %reservationCB, i64 noundef %maxPages) unnamed_addr #0 align 2 personality ptr @__gxx_personality_v0 {
entry:
  %agg.tmp1 = alloca %class.anon.22, align 8
  %numPages.addr = alloca i64, align 8
  %collateral.addr = alloca ptr, align 8
  %maxPages.addr = alloca i64, align 8
  %result = alloca i8, align 1
  store i64 %numPages, ptr %numPages.addr, align 8
  store ptr %collateral, ptr %collateral.addr, align 8
  store i64 %maxPages, ptr %maxPages.addr, align 8
  %stats_ = getelementptr inbounds i8, ptr %this, i64 72
  %mul.i = shl i64 %numPages, 12
  call void @llvm.lifetime.start.p0(i64 56, ptr nonnull %agg.tmp1)
  store ptr %result, ptr %agg.tmp1, align 8
  %agg.tmp.sroa.2.0.agg.tmp1.sroa_idx = getelementptr inbounds i8, ptr %agg.tmp1, i64 8
  store ptr %this, ptr %agg.tmp.sroa.2.0.agg.tmp1.sroa_idx, align 8
  %agg.tmp.sroa.3.0.agg.tmp1.sroa_idx = getelementptr inbounds i8, ptr %agg.tmp1, i64 16
  store ptr %numPages.addr, ptr %agg.tmp.sroa.3.0.agg.tmp1.sroa_idx, align 8
  %agg.tmp.sroa.4.0.agg.tmp1.sroa_idx = getelementptr inbounds i8, ptr %agg.tmp1, i64 24
  store ptr %collateral.addr, ptr %agg.tmp.sroa.4.0.agg.tmp1.sroa_idx, align 8
  %agg.tmp.sroa.5.0.agg.tmp1.sroa_idx = getelementptr inbounds i8, ptr %agg.tmp1, i64 32
  store ptr %allocation, ptr %agg.tmp.sroa.5.0.agg.tmp1.sroa_idx, align 8
  %agg.tmp.sroa.6.0.agg.tmp1.sroa_idx = getelementptr inbounds i8, ptr %agg.tmp1, i64 40
  store ptr %reservationCB, ptr %agg.tmp.sroa.6.0.agg.tmp1.sroa_idx, align 8
  %agg.tmp.sroa.7.0.agg.tmp1.sroa_idx = getelementptr inbounds i8, ptr %agg.tmp1, i64 48
  store ptr %maxPages.addr, ptr %agg.tmp.sroa.7.0.agg.tmp1.sroa_idx, align 8
  %0 = load i8, ptr @_ZN3fLB28FLAGS_velox_time_allocationsE, align 1
  %1 = and i8 %0, 1
  %tobool.not.i = icmp eq i8 %1, 0
  br i1 %tobool.not.i, label %if.else.i, label %if.then.i

if.then.i:                                        ; preds = %entry
  %cmp.i.i = icmp eq i64 %mul.i, 0
  br i1 %cmp.i.i, label %_ZN8facebook5velox6memory5Stats9sizeIndexEl.exit.i, label %if.end.i.i.i

if.end.i.i.i:                                     ; preds = %if.then.i
  %div2.i.i = and i64 %numPages, 4503599627370495
  %2 = call i64 @llvm.ctlz.i64(i64 %div2.i.i, i1 true), !range !6
  %sub.i.i.i = xor i64 %2, 63
  %shl.i.i.i = shl nuw nsw i64 1, %sub.i.i.i
  %cmp1.i.i.i = icmp eq i64 %shl.i.i.i, %div2.i.i
  %mul.i.i.i = shl nuw nsw i64 2, %sub.i.i.i
  %spec.select.i.i.i = select i1 %cmp1.i.i.i, i64 %div2.i.i, i64 %mul.i.i.i
  %3 = call i64 @llvm.ctlz.i64(i64 %spec.select.i.i.i, i1 false), !range !6
  %cast.i.i.i = trunc i64 %3 to i32
  %sub.i.i = sub nsw i32 63, %cast.i.i.i
  %.sroa.speculated.i.i = call i32 @llvm.smin.i32(i32 %sub.i.i, i32 19)
  %4 = sext i32 %.sroa.speculated.i.i to i64
  br label %_ZN8facebook5velox6memory5Stats9sizeIndexEl.exit.i

_ZN8facebook5velox6memory5Stats9sizeIndexEl.exit.i: ; preds = %if.end.i.i.i, %if.then.i
  %retval.0.i.i = phi i64 [ %4, %if.end.i.i.i ], [ 0, %if.then.i ]
  %arrayidx.i.i.i = getelementptr inbounds [20 x %"struct.facebook::velox::memory::SizeClassStats"], ptr %stats_, i64 0, i64 %retval.0.i.i
  %allocateClocks.i = getelementptr inbounds i8, ptr %arrayidx.i.i.i, i64 8
  %5 = call noundef i64 @llvm.x86.rdtsc()
  invoke fastcc void @"_ZZN8facebook5velox6memory15MallocAllocator30allocateContiguousWithoutRetryEmPNS1_10AllocationERNS1_20ContiguousAllocationESt8functionIFvlbEEmENK3$_0clEv"(ptr noundef nonnull align 8 dereferenceable(56) %agg.tmp1)
          to label %_ZN8facebook5velox10ClockTimerD2Ev.exit.i unwind label %_ZN8facebook5velox10ClockTimerD2Ev.exit19.i

_ZN8facebook5velox10ClockTimerD2Ev.exit.i:        ; preds = %_ZN8facebook5velox6memory5Stats9sizeIndexEl.exit.i
  %numAllocations.i = getelementptr inbounds i8, ptr %arrayidx.i.i.i, i64 24
  %6 = atomicrmw add ptr %numAllocations.i, i64 1 seq_cst, align 8
  %totalBytes.i = getelementptr inbounds i8, ptr %arrayidx.i.i.i, i64 32
  %7 = atomicrmw add ptr %totalBytes.i, i64 %mul.i seq_cst, align 8
  %8 = call noundef i64 @llvm.x86.rdtsc()
  %sub.i8.i = sub i64 %8, %5
  %9 = atomicrmw add ptr %allocateClocks.i, i64 %sub.i8.i seq_cst, align 8
  br label %"_ZN8facebook5velox6memory5Stats14recordAllocateIZNS1_15MallocAllocator30allocateContiguousWithoutRetryEmPNS1_10AllocationERNS1_20ContiguousAllocationESt8functionIFvlbEEmE3$_0EEvliT_.exit"

_ZN8facebook5velox10ClockTimerD2Ev.exit19.i:      ; preds = %_ZN8facebook5velox6memory5Stats9sizeIndexEl.exit.i
  %10 = landingpad { ptr, i32 }
          cleanup
  %11 = call noundef i64 @llvm.x86.rdtsc()
  %sub.i12.i = sub i64 %11, %5
  %12 = atomicrmw add ptr %allocateClocks.i, i64 %sub.i12.i seq_cst, align 8
  resume { ptr, i32 } %10

if.else.i:                                        ; preds = %entry
  call fastcc void @"_ZZN8facebook5velox6memory15MallocAllocator30allocateContiguousWithoutRetryEmPNS1_10AllocationERNS1_20ContiguousAllocationESt8functionIFvlbEEmENK3$_0clEv"(ptr noundef nonnull align 8 dereferenceable(56) %agg.tmp1)
  br label %"_ZN8facebook5velox6memory5Stats14recordAllocateIZNS1_15MallocAllocator30allocateContiguousWithoutRetryEmPNS1_10AllocationERNS1_20ContiguousAllocationESt8functionIFvlbEEmE3$_0EEvliT_.exit"

"_ZN8facebook5velox6memory5Stats14recordAllocateIZNS1_15MallocAllocator30allocateContiguousWithoutRetryEmPNS1_10AllocationERNS1_20ContiguousAllocationESt8functionIFvlbEEmE3$_0EEvliT_.exit": ; preds = %_ZN8facebook5velox10ClockTimerD2Ev.exit.i, %if.else.i
  call void @llvm.lifetime.end.p0(i64 56, ptr nonnull %agg.tmp1)
  %13 = load i8, ptr %result, align 1
  %14 = and i8 %13, 1
  %tobool = icmp ne i8 %14, 0
  ret i1 %tobool
}